target datalayout = "e-m:e-p270:32:32-p271:32:32-p272:64:64-i64:64-i128:128-f80:128-n8:16:32:64-S128"
target triple = "x86_64-pc-linux-gnu"

%struct.gmx_ddbox_t = type { i32, i32, %"class.gmx::BasicVector", %"class.gmx::BasicVector", %"class.gmx::BasicVector.0", %"class.gmx::BasicVector", [3 x [3 x [3 x float]]], [3 x [3 x float]] }
%"class.gmx::BasicVector.0" = type { [3 x i32] }
%"class.gmx::BasicVector" = type { [3 x float] }

; Function Attrs: mustprogress nounwind uwtable
define linkonce_odr noundef i32 @_ZNK3gmx11BasicVectorIiEixEi(ptr noundef nonnull align 4 dereferenceable(12) %0, i32 noundef %1) #2 comdat align 2 {
  %3 = alloca ptr, align 8
  %4 = alloca i32, align 4
  store ptr %0, ptr %3, align 8, !tbaa !4
  store i32 %1, ptr %4, align 4, !tbaa !13
  %5 = load ptr, ptr %3, align 8
  %6 = getelementptr inbounds nuw %"class.gmx::BasicVector.0", ptr %5, i32 0, i32 0
  %7 = load i32, ptr %4, align 4, !tbaa !13
  %8 = sext i32 %7 to i64
  %9 = getelementptr inbounds [3 x i32], ptr %6, i64 0, i64 %8
  %10 = load i32, ptr %9, align 4, !tbaa !13
  ret i32 %10
}

; Function Attrs: mustprogress nounwind uwtable
define linkonce_odr noundef float @_ZNK3gmx11BasicVectorIfEixEi(ptr noundef nonnull align 4 dereferenceable(12) %0, i32 noundef %1) #2 comdat align 2 {
  %3 = alloca ptr, align 8
  %4 = alloca i32, align 4
  store ptr %0, ptr %3, align 8, !tbaa !20
  store i32 %1, ptr %4, align 4, !tbaa !13
  %5 = load ptr, ptr %3, align 8
  %6 = getelementptr inbounds nuw %"class.gmx::BasicVector", ptr %5, i32 0, i32 0
  %7 = load i32, ptr %4, align 4, !tbaa !13
  %8 = sext i32 %7 to i64
  %9 = getelementptr inbounds [3 x float], ptr %6, i64 0, i64 %8
  %10 = load float, ptr %9, align 4, !tbaa !9
  ret float %10
}

; Function Attrs: mustprogress uwtable
define noundef float @_Z13comm_box_fracRKN3gmx11BasicVectorIiEEfRK11gmx_ddbox_t(ptr noundef nonnull align 4 dereferenceable(12) %0, float noundef %1, ptr noundef nonnull align 4 dereferenceable(200) %2) #0 {
  %4 = alloca ptr, align 8
  %5 = alloca float, align 4
  %6 = alloca ptr, align 8
  %7 = alloca [3 x float], align 4
  %8 = alloca i32, align 4
  %9 = alloca float, align 4
  %10 = alloca float, align 4
  %11 = alloca i32, align 4
  %12 = alloca i32, align 4
  %13 = alloca i32, align 4
  %14 = alloca i32, align 4
  store ptr %0, ptr %4, align 8, !tbaa !4
  store float %1, ptr %5, align 4, !tbaa !9
  store ptr %2, ptr %6, align 8, !tbaa !11
  call void @llvm.lifetime.start.p0(i64 12, ptr %7) #17
  call void @llvm.lifetime.start.p0(i64 4, ptr %8) #17
  store i32 0, ptr %8, align 4, !tbaa !13
  br label %15

15:                                               ; preds = %40, %3
  %16 = load i32, ptr %8, align 4, !tbaa !13
  %17 = icmp slt i32 %16, 3
  br i1 %17, label %19, label %18

18:                                               ; preds = %15
  call void @llvm.lifetime.end.p0(i64 4, ptr %8) #17
  br label %43

19:                                               ; preds = %15
  call void @llvm.lifetime.start.p0(i64 4, ptr %9) #17
  %20 = load ptr, ptr %6, align 8, !tbaa !11
  %21 = getelementptr inbounds nuw %struct.gmx_ddbox_t, ptr %20, i32 0, i32 3
  %22 = load i32, ptr %8, align 4, !tbaa !13
  %23 = call noundef float @_ZNK3gmx11BasicVectorIfEixEi(ptr noundef nonnull align 4 dereferenceable(12) %21, i32 noundef %22)
  %24 = load ptr, ptr %6, align 8, !tbaa !11
  %25 = getelementptr inbounds nuw %struct.gmx_ddbox_t, ptr %24, i32 0, i32 5
  %26 = load i32, ptr %8, align 4, !tbaa !13
  %27 = call noundef float @_ZNK3gmx11BasicVectorIfEixEi(ptr noundef nonnull align 4 dereferenceable(12) %25, i32 noundef %26)
  %28 = fmul float %23, %27
  store float %28, ptr %9, align 4, !tbaa !9
  %29 = load ptr, ptr %4, align 8, !tbaa !4
  %30 = load i32, ptr %8, align 4, !tbaa !13
  %31 = call noundef i32 @_ZNK3gmx11BasicVectorIiEixEi(ptr noundef nonnull align 4 dereferenceable(12) %29, i32 noundef %30)
  %32 = sitofp i32 %31 to float
  %33 = load float, ptr %5, align 4, !tbaa !9
  %34 = fmul float %32, %33
  %35 = load float, ptr %9, align 4, !tbaa !9
  %36 = fdiv float %34, %35
  %37 = load i32, ptr %8, align 4, !tbaa !13
  %38 = sext i32 %37 to i64
  %39 = getelementptr inbounds [3 x float], ptr %7, i64 0, i64 %38
  store float %36, ptr %39, align 4, !tbaa !9
  call void @llvm.lifetime.end.p0(i64 4, ptr %9) #17
  br label %40

40:                                               ; preds = %19
  %41 = load i32, ptr %8, align 4, !tbaa !13
  %42 = add nsw i32 %41, 1
  store i32 %42, ptr %8, align 4, !tbaa !13
  br label %15, !llvm.loop !15

43:                                               ; preds = %18
  call void @llvm.lifetime.start.p0(i64 4, ptr %10) #17
  store float 0.000000e+00, ptr %10, align 4, !tbaa !9
  call void @llvm.lifetime.start.p0(i64 4, ptr %11) #17
  store i32 0, ptr %11, align 4, !tbaa !13
  br label %44

44:                                               ; preds = %132, %43
  %45 = load i32, ptr %11, align 4, !tbaa !13
  %46 = icmp slt i32 %45, 3
  br i1 %46, label %48, label %47

47:                                               ; preds = %44
  store i32 5, ptr %12, align 4
  call void @llvm.lifetime.end.p0(i64 4, ptr %11) #17
  br label %135

48:                                               ; preds = %44
  %49 = load ptr, ptr %4, align 8, !tbaa !4
  %50 = load i32, ptr %11, align 4, !tbaa !13
  %51 = call noundef i32 @_ZNK3gmx11BasicVectorIiEixEi(ptr noundef nonnull align 4 dereferenceable(12) %49, i32 noundef %50)
  %52 = icmp sgt i32 %51, 1
  br i1 %52, label %53, label %131

53:                                               ; preds = %48
  %54 = load i32, ptr %11, align 4, !tbaa !13
  %55 = sext i32 %54 to i64
  %56 = getelementptr inbounds [3 x float], ptr %7, i64 0, i64 %55
  %57 = load float, ptr %56, align 4, !tbaa !9
  %58 = load float, ptr %10, align 4, !tbaa !9
  %59 = fadd float %58, %57
  store float %59, ptr %10, align 4, !tbaa !9
  call void @llvm.lifetime.start.p0(i64 4, ptr %13) #17
  %60 = load i32, ptr %11, align 4, !tbaa !13
  %61 = add nsw i32 %60, 1
  store i32 %61, ptr %13, align 4, !tbaa !13
  br label %62

62:                                               ; preds = %127, %53
  %63 = load i32, ptr %13, align 4, !tbaa !13
  %64 = icmp slt i32 %63, 3
  br i1 %64, label %66, label %65

65:                                               ; preds = %62
  store i32 8, ptr %12, align 4
  call void @llvm.lifetime.end.p0(i64 4, ptr %13) #17
  br label %130

66:                                               ; preds = %62
  %67 = load ptr, ptr %4, align 8, !tbaa !4
  %68 = load i32, ptr %13, align 4, !tbaa !13
  %69 = call noundef i32 @_ZNK3gmx11BasicVectorIiEixEi(ptr noundef nonnull align 4 dereferenceable(12) %67, i32 noundef %68)
  %70 = icmp sgt i32 %69, 1
  br i1 %70, label %71, label %126

71:                                               ; preds = %66
  %72 = load i32, ptr %11, align 4, !tbaa !13
  %73 = sext i32 %72 to i64
  %74 = getelementptr inbounds [3 x float], ptr %7, i64 0, i64 %73
  %75 = load float, ptr %74, align 4, !tbaa !9
  %76 = load i32, ptr %13, align 4, !tbaa !13
  %77 = sext i32 %76 to i64
  %78 = getelementptr inbounds [3 x float], ptr %7, i64 0, i64 %77
  %79 = load float, ptr %78, align 4, !tbaa !9
  %80 = fmul float %75, %79
  %81 = fpext float %80 to double
  %82 = fmul double %81, 0x400921FB54442D18
  %83 = fdiv double %82, 4.000000e+00
  %84 = load float, ptr %10, align 4, !tbaa !9
  %85 = fpext float %84 to double
  %86 = fadd double %85, %83
  %87 = fptrunc double %86 to float
  store float %87, ptr %10, align 4, !tbaa !9
  call void @llvm.lifetime.start.p0(i64 4, ptr %14) #17
  %88 = load i32, ptr %13, align 4, !tbaa !13
  %89 = add nsw i32 %88, 1
  store i32 %89, ptr %14, align 4, !tbaa !13
  br label %90

90:                                               ; preds = %122, %71
  %91 = load i32, ptr %14, align 4, !tbaa !13
  %92 = icmp slt i32 %91, 3
  br i1 %92, label %94, label %93

93:                                               ; preds = %90
  store i32 11, ptr %12, align 4
  call void @llvm.lifetime.end.p0(i64 4, ptr %14) #17
  br label %125

94:                                               ; preds = %90
  %95 = load ptr, ptr %4, align 8, !tbaa !4
  %96 = load i32, ptr %14, align 4, !tbaa !13
  %97 = call noundef i32 @_ZNK3gmx11BasicVectorIiEixEi(ptr noundef nonnull align 4 dereferenceable(12) %95, i32 noundef %96)
  %98 = icmp sgt i32 %97, 1
  br i1 %98, label %99, label %121

99:                                               ; preds = %94
  %100 = load i32, ptr %11, align 4, !tbaa !13
  %101 = sext i32 %100 to i64
  %102 = getelementptr inbounds [3 x float], ptr %7, i64 0, i64 %101
  %103 = load float, ptr %102, align 4, !tbaa !9
  %104 = load i32, ptr %13, align 4, !tbaa !13
  %105 = sext i32 %104 to i64
  %106 = getelementptr inbounds [3 x float], ptr %7, i64 0, i64 %105
  %107 = load float, ptr %106, align 4, !tbaa !9
  %108 = fmul float %103, %107
  %109 = load i32, ptr %14, align 4, !tbaa !13
  %110 = sext i32 %109 to i64
  %111 = getelementptr inbounds [3 x float], ptr %7, i64 0, i64 %110
  %112 = load float, ptr %111, align 4, !tbaa !9
  %113 = fmul float %108, %112
  %114 = fpext float %113 to double
  %115 = fmul double %114, 0x400921FB54442D18
  %116 = fdiv double %115, 6.000000e+00
  %117 = load float, ptr %10, align 4, !tbaa !9
  %118 = fpext float %117 to double
  %119 = fadd double %118, %116
  %120 = fptrunc double %119 to float
  store float %120, ptr %10, align 4, !tbaa !9
  br label %121

121:                                              ; preds = %99, %94
  br label %122

122:                                              ; preds = %121
  %123 = load i32, ptr %14, align 4, !tbaa !13
  %124 = add nsw i32 %123, 1
  store i32 %124, ptr %14, align 4, !tbaa !13
  br label %90, !llvm.loop !17

125:                                              ; preds = %93
  br label %126

126:                                              ; preds = %125, %66
  br label %127

127:                                              ; preds = %126
  %128 = load i32, ptr %13, align 4, !tbaa !13
  %129 = add nsw i32 %128, 1
  store i32 %129, ptr %13, align 4, !tbaa !13
  br label %62, !llvm.loop !18

130:                                              ; preds = %65
  br label %131

131:                                              ; preds = %130, %48
  br label %132

132:                                              ; preds = %131
  %133 = load i32, ptr %11, align 4, !tbaa !13
  %134 = add nsw i32 %133, 1
  store i32 %134, ptr %11, align 4, !tbaa !13
  br label %44, !llvm.loop !19

135:                                              ; preds = %47
  %136 = load float, ptr %10, align 4, !tbaa !9
  store i32 1, ptr %12, align 4
  call void @llvm.lifetime.end.p0(i64 4, ptr %10) #17
  call void @llvm.lifetime.end.p0(i64 12, ptr %7) #17
  ret float %136
}