; Function Attrs: mustprogress nofree norecurse nosync nounwind willreturn memory(argmem: read) uwtable
define noundef float @_Z13comm_box_fracRKN3gmx11BasicVectorIiEEfRK11gmx_ddbox_t(ptr noundef nonnull readonly align 4 captures(none) dereferenceable(12) %0, float noundef %1, ptr noundef nonnull readonly align 4 captures(none) dereferenceable(200) %2) local_unnamed_addr #0 {
  %4 = alloca [3 x float], align 4
  call void @llvm.lifetime.start.p0(i64 12, ptr nonnull %4) #19
  %5 = getelementptr inbounds nuw i8, ptr %2, i64 20
  %6 = getelementptr inbounds nuw i8, ptr %2, i64 44
  br label %7

7:                                                ; preds = %3, %7
  %indvars.iv = phi i64 [ 0, %3 ], [ %indvars.iv.next, %7 ]
  %8 = getelementptr inbounds nuw [3 x float], ptr %5, i64 0, i64 %indvars.iv
  %9 = load float, ptr %8, align 4, !tbaa !4
  %10 = getelementptr inbounds nuw [3 x float], ptr %6, i64 0, i64 %indvars.iv
  %11 = load float, ptr %10, align 4, !tbaa !4
  %12 = fmul float %9, %11
  %13 = getelementptr inbounds nuw [3 x i32], ptr %0, i64 0, i64 %indvars.iv
  %14 = load i32, ptr %13, align 4, !tbaa !8
  %15 = sitofp i32 %14 to float
  %16 = fmul float %1, %15
  %17 = fdiv float %16, %12
  %18 = getelementptr inbounds nuw [3 x float], ptr %4, i64 0, i64 %indvars.iv
  store float %17, ptr %18, align 4, !tbaa !4
  %indvars.iv.next = add nuw nsw i64 %indvars.iv, 1
  %exitcond.not = icmp eq i64 %indvars.iv.next, 3
  br i1 %exitcond.not, label %.preheader, label %7, !llvm.loop !10

19:                                               ; preds = %.loopexit38
  call void @llvm.lifetime.end.p0(i64 12, ptr nonnull %4) #19
  ret float %.5

.preheader:                                       ; preds = %7, %.loopexit38
  %indvars.iv59 = phi i64 [ %indvars.iv.next60, %.loopexit38 ], [ 0, %7 ]
  %indvars.iv52 = phi i64 [ %indvars.iv.next53, %.loopexit38 ], [ 2, %7 ]
  %.03648 = phi float [ %.5, %.loopexit38 ], [ 0.000000e+00, %7 ]
  %20 = getelementptr inbounds nuw [3 x i32], ptr %0, i64 0, i64 %indvars.iv59
  %21 = load i32, ptr %20, align 4, !tbaa !8
  %22 = icmp sgt i32 %21, 1
  br i1 %22, label %23, label %.loopexit38

23:                                               ; preds = %.preheader
  %24 = getelementptr inbounds nuw [3 x float], ptr %4, i64 0, i64 %indvars.iv59
  %25 = load float, ptr %24, align 4, !tbaa !4
  %26 = fadd float %.03648, %25
  %27 = icmp samesign ult i64 %indvars.iv59, 2
  br i1 %27, label %.lr.ph46, label %.loopexit38

.lr.ph46:                                         ; preds = %23, %.loopexit
  %indvars.iv61 = phi i64 [ 1, %.loopexit ], [ %indvars.iv59, %23 ]
  %indvars.iv54 = phi i64 [ %indvars.iv.next55, %.loopexit ], [ %indvars.iv52, %23 ]
  %.143 = phi float [ %.4, %.loopexit ], [ %26, %23 ]
  %indvars.iv.next62 = add nuw nsw i64 %indvars.iv61, 1
  %28 = getelementptr inbounds nuw [3 x i32], ptr %0, i64 0, i64 %indvars.iv.next62
  %29 = load i32, ptr %28, align 4, !tbaa !8
  %30 = icmp sgt i32 %29, 1
  br i1 %30, label %31, label %.loopexit

31:                                               ; preds = %.lr.ph46
  %32 = getelementptr inbounds nuw [3 x float], ptr %4, i64 0, i64 %indvars.iv.next62
  %33 = load float, ptr %32, align 4, !tbaa !4
  %34 = fmul float %25, %33
  %35 = fpext float %34 to double
  %36 = fmul double %35, 0x400921FB54442D18
  %37 = fmul double %36, 2.500000e-01
  %38 = fpext float %.143 to double
  %39 = fadd double %37, %38
  %40 = fptrunc double %39 to float
  %41 = icmp eq i64 %indvars.iv61, 0
  br i1 %41, label %.lr.ph.preheader, label %.loopexit38

.lr.ph.preheader:                                 ; preds = %31
  %42 = getelementptr inbounds nuw [3 x i32], ptr %0, i64 0, i64 %indvars.iv54
  %43 = load i32, ptr %42, align 4, !tbaa !8
  %44 = icmp sgt i32 %43, 1
  br i1 %44, label %45, label %.loopexit

45:                                               ; preds = %.lr.ph.preheader
  %46 = getelementptr inbounds nuw [3 x float], ptr %4, i64 0, i64 %indvars.iv54
  %47 = load float, ptr %46, align 4, !tbaa !4
  %48 = fmul float %34, %47
  %49 = fpext float %48 to double
  %50 = fmul double %49, 0x400921FB54442D18
  %51 = fdiv double %50, 6.000000e+00
  %52 = fpext float %40 to double
  %53 = fadd double %51, %52
  %54 = fptrunc double %53 to float
  br label %.loopexit

.loopexit:                                        ; preds = %45, %.lr.ph.preheader, %.lr.ph46
  %.4 = phi float [ %.143, %.lr.ph46 ], [ %54, %45 ], [ %40, %.lr.ph.preheader ]
  %55 = icmp eq i64 %indvars.iv61, 0
  %indvars.iv.next55 = add nuw nsw i64 %indvars.iv54, 1
  br i1 %55, label %.lr.ph46, label %.loopexit38, !llvm.loop !12

.loopexit38:                                      ; preds = %31, %.loopexit, %23, %.preheader
  %.5 = phi float [ %.03648, %.preheader ], [ %26, %23 ], [ %40, %31 ], [ %.4, %.loopexit ]
  %indvars.iv.next60 = add nuw nsw i64 %indvars.iv59, 1
  %indvars.iv.next53 = add nuw nsw i64 %indvars.iv52, 1
  %exitcond65.not = icmp eq i64 %indvars.iv.next60, 3
  br i1 %exitcond65.not, label %19, label %.preheader, !llvm.loop !13
}